target datalayout = "e-m:e-p270:32:32-p271:32:32-p272:64:64-i64:64-i128:128-f80:128-n8:16:32:64-S128"
target triple = "x86_64-pc-linux-gnu"

; Function Attrs: nounwind uwtable
define internal i32 @padlock_ctr_cipher(ptr noundef %0, ptr noundef %1, ptr noundef %2, i64 noundef %3) #0 {
  %5 = alloca i32, align 4
  %6 = alloca ptr, align 8
  %7 = alloca ptr, align 8
  %8 = alloca ptr, align 8
  %9 = alloca i64, align 8
  %10 = alloca ptr, align 8
  %11 = alloca i32, align 4
  %12 = alloca i32, align 4
  %13 = alloca i32, align 4
  store ptr %0, ptr %6, align 8, !tbaa !30
  store ptr %1, ptr %7, align 8, !tbaa !10
  store ptr %2, ptr %8, align 8, !tbaa !10
  store i64 %3, ptr %9, align 8, !tbaa !3
  call void @llvm.lifetime.start.p0(i64 8, ptr %10) #7
  %14 = load ptr, ptr %6, align 8, !tbaa !30
  %15 = call ptr @EVP_CIPHER_CTX_get_cipher_data(ptr noundef %14)
  %16 = load ptr, ptr %6, align 8, !tbaa !30
  %17 = call ptr @EVP_CIPHER_CTX_get_cipher_data(ptr noundef %16)
  %18 = ptrtoint ptr %17 to i64
  %19 = and i64 %18, 15
  %20 = sub i64 16, %19
  %21 = and i64 %20, 15
  %22 = getelementptr inbounds nuw i8, ptr %15, i64 %21
  store ptr %22, ptr %10, align 8, !tbaa !32
  call void @llvm.lifetime.start.p0(i64 4, ptr %11) #7
  %23 = load ptr, ptr %6, align 8, !tbaa !30
  %24 = call i32 @EVP_CIPHER_CTX_get_num(ptr noundef %23)
  store i32 %24, ptr %11, align 4, !tbaa !20
  call void @llvm.lifetime.start.p0(i64 4, ptr %12) #7
  %25 = load i32, ptr %11, align 4, !tbaa !20
  %26 = icmp slt i32 %25, 0
  br i1 %26, label %27, label %28

27:                                               ; preds = %4
  store i32 0, ptr %5, align 4
  store i32 1, ptr %13, align 4
  br label %43

28:                                               ; preds = %4
  %29 = load i32, ptr %11, align 4, !tbaa !20
  store i32 %29, ptr %12, align 4, !tbaa !20
  %30 = load ptr, ptr %8, align 8, !tbaa !10
  %31 = load ptr, ptr %7, align 8, !tbaa !10
  %32 = load i64, ptr %9, align 8, !tbaa !3
  %33 = load ptr, ptr %10, align 8, !tbaa !32
  %34 = load ptr, ptr %6, align 8, !tbaa !30
  %35 = call ptr @EVP_CIPHER_CTX_iv_noconst(ptr noundef %34)
  %36 = load ptr, ptr %6, align 8, !tbaa !30
  %37 = call ptr @EVP_CIPHER_CTX_buf_noconst(ptr noundef %36)
  call void @CRYPTO_ctr128_encrypt_ctr32(ptr noundef %30, ptr noundef %31, i64 noundef %32, ptr noundef %33, ptr noundef %35, ptr noundef %37, ptr noundef %12, ptr noundef @padlock_ctr32_encrypt_glue)
  %38 = load ptr, ptr %6, align 8, !tbaa !30
  %39 = load i32, ptr %12, align 4, !tbaa !20
  %40 = zext i32 %39 to i64
  %41 = trunc i64 %40 to i32
  %42 = call i32 @EVP_CIPHER_CTX_set_num(ptr noundef %38, i32 noundef %41)
  store i32 1, ptr %5, align 4
  store i32 1, ptr %13, align 4
  br label %43

43:                                               ; preds = %28, %27
  call void @llvm.lifetime.end.p0(i64 4, ptr %12) #7
  call void @llvm.lifetime.end.p0(i64 4, ptr %11) #7
  call void @llvm.lifetime.end.p0(i64 8, ptr %10) #7
  %44 = load i32, ptr %5, align 4
  ret i32 %44
}