; Function Attrs: nounwind uwtable
define internal range(i32 0, 2) i32 @padlock_ctr_cipher(ptr noundef %0, ptr noundef %1, ptr noundef %2, i64 noundef %3) #1 {
  %5 = alloca i32, align 4
  %6 = tail call ptr @EVP_CIPHER_CTX_get_cipher_data(ptr noundef %0) #10
  %7 = tail call ptr @EVP_CIPHER_CTX_get_cipher_data(ptr noundef %0) #10
  %8 = tail call i32 @EVP_CIPHER_CTX_get_num(ptr noundef %0) #10
  call void @llvm.lifetime.start.p0(i64 4, ptr nonnull %5) #10
  %9 = icmp slt i32 %8, 0
  br i1 %9, label %19, label %10

10:                                               ; preds = %4
  %11 = ptrtoint ptr %7 to i64
  %12 = sub i64 0, %11
  %13 = and i64 %12, 15
  %14 = getelementptr inbounds nuw i8, ptr %6, i64 %13
  store i32 %8, ptr %5, align 4, !tbaa !12
  %15 = tail call ptr @EVP_CIPHER_CTX_iv_noconst(ptr noundef %0) #10
  %16 = tail call ptr @EVP_CIPHER_CTX_buf_noconst(ptr noundef %0) #10
  call void @CRYPTO_ctr128_encrypt_ctr32(ptr noundef %2, ptr noundef %1, i64 noundef %3, ptr noundef %14, ptr noundef %15, ptr noundef %16, ptr noundef nonnull %5, ptr noundef nonnull @padlock_ctr32_encrypt_glue) #10
  %17 = load i32, ptr %5, align 4, !tbaa !12
  %18 = call i32 @EVP_CIPHER_CTX_set_num(ptr noundef %0, i32 noundef %17) #10
  br label %19

19:                                               ; preds = %4, %10
  %.0 = phi i32 [ 1, %10 ], [ 0, %4 ]
  call void @llvm.lifetime.end.p0(i64 4, ptr nonnull %5) #10
  ret i32 %.0
}